target datalayout = "e-m:e-p270:32:32-p271:32:32-p272:64:64-i64:64-i128:128-f80:128-n8:16:32:64-S128"
target triple = "x86_64-pc-linux-gnu"

%class.svector.42 = type { %class.vector.43 }
%class.vector.43 = type { ptr }
%"class.datalog::table_signature" = type <{ %"class.datalog::tr_infrastructure<datalog::table_traits>::signature_base", i32, [4 x i8] }>
%"class.datalog::tr_infrastructure<datalog::table_traits>::signature_base" = type { %class.svector.134 }
%class.svector.134 = type { %class.vector.135 }
%class.vector.135 = type { ptr }
%"class.datalog::tr_infrastructure<datalog::table_traits>::base_ancestor" = type <{ ptr, ptr, %"class.datalog::table_signature", i32, [4 x i8] }>
%"class.datalog::relation_manager::default_table_join_fn" = type <{ %"class.datalog::tr_infrastructure<datalog::table_traits>::convenient_join_fn", i32, [4 x i8] }>
%"class.datalog::tr_infrastructure<datalog::table_traits>::convenient_join_fn" = type { %"class.datalog::tr_infrastructure<datalog::table_traits>::join_fn", %"class.datalog::table_signature", %class.svector.42, %class.svector.42 }
%"class.datalog::tr_infrastructure<datalog::table_traits>::join_fn" = type { %"class.datalog::tr_infrastructure<datalog::table_traits>::base_fn" }
%"class.datalog::tr_infrastructure<datalog::table_traits>::base_fn" = type { ptr }

; Function Attrs: mustprogress nounwind uwtable
define linkonce_odr hidden void @_ZN6vectorImLb0EjEC2Ev(ptr noundef nonnull align 8 dereferenceable(8) %0) unnamed_addr #4 comdat align 2 {
  %2 = alloca ptr, align 8
  store ptr %0, ptr %2, align 8, !tbaa !409
  %3 = load ptr, ptr %2, align 8
  %4 = getelementptr inbounds nuw %class.vector.135, ptr %3, i32 0, i32 0
  store ptr null, ptr %4, align 8, !tbaa !412
  ret void
}

; Function Attrs: mustprogress nounwind uwtable
define linkonce_odr hidden void @_ZN7svectorImjEC2Ev(ptr noundef nonnull align 8 dereferenceable(8) %0) unnamed_addr #4 comdat align 2 {
  %2 = alloca ptr, align 8
  store ptr %0, ptr %2, align 8, !tbaa !415
  %3 = load ptr, ptr %2, align 8
  call void @_ZN6vectorImLb0EjEC2Ev(ptr noundef nonnull align 8 dereferenceable(8) %3) #3
  ret void
}

; Function Attrs: inlinehint mustprogress nounwind uwtable
define linkonce_odr hidden void @_ZN7datalog17tr_infrastructureINS_12table_traitsEE14signature_baseC2Ev(ptr noundef nonnull align 8 dereferenceable(8) %0) unnamed_addr #7 comdat align 2 {
  %2 = alloca ptr, align 8
  store ptr %0, ptr %2, align 8, !tbaa !652
  %3 = load ptr, ptr %2, align 8
  call void @_ZN7svectorImjEC2Ev(ptr noundef nonnull align 8 dereferenceable(8) %3) #3
  ret void
}

; Function Attrs: mustprogress uwtable
define linkonce_odr hidden void @_ZN7datalog16relation_manager21default_table_join_fnC2ERKNS_15table_signatureES4_jPKjS6_(ptr noundef nonnull align 8 dereferenceable(44) %0, ptr noundef nonnull align 8 dereferenceable(12) %1, ptr noundef nonnull align 8 dereferenceable(12) %2, i32 noundef %3, ptr noundef %4, ptr noundef %5) unnamed_addr #5 comdat align 2 {
  %7 = alloca ptr, align 8
  %8 = alloca ptr, align 8
  %9 = alloca ptr, align 8
  %10 = alloca i32, align 4
  %11 = alloca ptr, align 8
  %12 = alloca ptr, align 8
  store ptr %0, ptr %7, align 8, !tbaa !503
  store ptr %1, ptr %8, align 8, !tbaa !362
  store ptr %2, ptr %9, align 8, !tbaa !362
  store i32 %3, ptr %10, align 4, !tbaa !279
  store ptr %4, ptr %11, align 8, !tbaa !286
  store ptr %5, ptr %12, align 8, !tbaa !286
  %13 = load ptr, ptr %7, align 8
  %14 = load ptr, ptr %8, align 8, !tbaa !362
  %15 = load ptr, ptr %9, align 8, !tbaa !362
  %16 = load i32, ptr %10, align 4, !tbaa !279
  %17 = load ptr, ptr %11, align 8, !tbaa !286
  %18 = load ptr, ptr %12, align 8, !tbaa !286
  call void @_ZN7datalog17tr_infrastructureINS_12table_traitsEE18convenient_join_fnC2ERKNS_15table_signatureES6_jPKjS8_(ptr noundef nonnull align 8 dereferenceable(40) %13, ptr noundef nonnull align 8 dereferenceable(12) %14, ptr noundef nonnull align 8 dereferenceable(12) %15, i32 noundef %16, ptr noundef %17, ptr noundef %18)
  store ptr getelementptr inbounds inrange(-16, 24) ({ [5 x ptr] }, ptr @_ZTVN7datalog16relation_manager21default_table_join_fnE, i32 0, i32 0, i32 2), ptr %13, align 8, !tbaa !8
  %19 = getelementptr inbounds nuw %"class.datalog::relation_manager::default_table_join_fn", ptr %13, i32 0, i32 1
  %20 = load i32, ptr %10, align 4, !tbaa !279
  store i32 %20, ptr %19, align 8, !tbaa !505
  ret void
}

; Function Attrs: mustprogress nounwind uwtable
define linkonce_odr hidden noundef nonnull align 8 dereferenceable(12) ptr @_ZNK7datalog17tr_infrastructureINS_12table_traitsEE13base_ancestor13get_signatureEv(ptr noundef nonnull align 8 dereferenceable(36) %0) #4 comdat align 2 {
  %2 = alloca ptr, align 8
  store ptr %0, ptr %2, align 8, !tbaa !377
  %3 = load ptr, ptr %2, align 8
  %4 = getelementptr inbounds nuw %"class.datalog::tr_infrastructure<datalog::table_traits>::base_ancestor", ptr %3, i32 0, i32 2
  ret ptr %4
}

; Function Attrs: mustprogress nounwind uwtable
define linkonce_odr hidden void @_ZN7datalog15table_signatureC2Ev(ptr noundef nonnull align 8 dereferenceable(12) %0) unnamed_addr #4 comdat align 2 {
  %2 = alloca ptr, align 8
  store ptr %0, ptr %2, align 8, !tbaa !362
  %3 = load ptr, ptr %2, align 8
  call void @_ZN7datalog17tr_infrastructureINS_12table_traitsEE14signature_baseC2Ev(ptr noundef nonnull align 8 dereferenceable(8) %3) #3
  %4 = getelementptr inbounds nuw %"class.datalog::table_signature", ptr %3, i32 0, i32 1
  store i32 0, ptr %4, align 8, !tbaa !386
  ret void
}

; Function Attrs: mustprogress nounwind uwtable
define linkonce_odr hidden noundef nonnull align 8 dereferenceable(32) ptr @_ZNK7datalog17tr_infrastructureINS_12table_traitsEE13base_ancestor10get_pluginEv(ptr noundef nonnull align 8 dereferenceable(36) %0) #4 comdat align 2 {
  %2 = alloca ptr, align 8
  store ptr %0, ptr %2, align 8, !tbaa !377
  %3 = load ptr, ptr %2, align 8
  %4 = getelementptr inbounds nuw %"class.datalog::tr_infrastructure<datalog::table_traits>::base_ancestor", ptr %3, i32 0, i32 1
  %5 = load ptr, ptr %4, align 8, !tbaa !379
  ret ptr %5
}

; Function Attrs: mustprogress uwtable
define hidden noundef ptr @_ZN7datalog16relation_manager10mk_join_fnERKNS_10table_baseES3_jPKjS5_(ptr noundef nonnull align 8 dereferenceable(200) %0, ptr noundef nonnull align 8 dereferenceable(36) %1, ptr noundef nonnull align 8 dereferenceable(36) %2, i32 noundef %3, ptr noundef %4, ptr noundef %5) #5 align 2 personality ptr @__gxx_personality_v0 {
  %7 = alloca ptr, align 8
  %8 = alloca ptr, align 8
  %9 = alloca ptr, align 8
  %10 = alloca i32, align 4
  %11 = alloca ptr, align 8
  %12 = alloca ptr, align 8
  %13 = alloca ptr, align 8
  %14 = alloca %"class.datalog::table_signature", align 8
  %15 = alloca ptr, align 8
  %16 = alloca i32, align 4
  store ptr %0, ptr %7, align 8, !tbaa !3
  store ptr %1, ptr %8, align 8, !tbaa !375
  store ptr %2, ptr %9, align 8, !tbaa !375
  store i32 %3, ptr %10, align 4, !tbaa !279
  store ptr %4, ptr %11, align 8, !tbaa !286
  store ptr %5, ptr %12, align 8, !tbaa !286
  call void @llvm.lifetime.start.p0(i64 8, ptr %13) #3
  %17 = load ptr, ptr %8, align 8, !tbaa !375
  %18 = call noundef nonnull align 8 dereferenceable(32) ptr @_ZNK7datalog17tr_infrastructureINS_12table_traitsEE13base_ancestor10get_pluginEv(ptr noundef nonnull align 8 dereferenceable(36) %17)
  %19 = load ptr, ptr %8, align 8, !tbaa !375
  %20 = load ptr, ptr %9, align 8, !tbaa !375
  %21 = load i32, ptr %10, align 4, !tbaa !279
  %22 = load ptr, ptr %11, align 8, !tbaa !286
  %23 = load ptr, ptr %12, align 8, !tbaa !286
  %24 = load ptr, ptr %18, align 8, !tbaa !8
  %25 = getelementptr inbounds ptr, ptr %24, i64 10
  %26 = load ptr, ptr %25, align 8
  %27 = call noundef ptr %26(ptr noundef nonnull align 8 dereferenceable(32) %18, ptr noundef nonnull align 8 dereferenceable(36) %19, ptr noundef nonnull align 8 dereferenceable(36) %20, i32 noundef %21, ptr noundef %22, ptr noundef %23)
  store ptr %27, ptr %13, align 8, !tbaa !501
  %28 = load ptr, ptr %13, align 8, !tbaa !501
  %29 = icmp ne ptr %28, null
  br i1 %29, label %48, label %30

30:                                               ; preds = %6
  %31 = load ptr, ptr %8, align 8, !tbaa !375
  %32 = call noundef nonnull align 8 dereferenceable(32) ptr @_ZNK7datalog17tr_infrastructureINS_12table_traitsEE13base_ancestor10get_pluginEv(ptr noundef nonnull align 8 dereferenceable(36) %31)
  %33 = load ptr, ptr %9, align 8, !tbaa !375
  %34 = call noundef nonnull align 8 dereferenceable(32) ptr @_ZNK7datalog17tr_infrastructureINS_12table_traitsEE13base_ancestor10get_pluginEv(ptr noundef nonnull align 8 dereferenceable(36) %33)
  %35 = icmp ne ptr %32, %34
  br i1 %35, label %36, label %48

36:                                               ; preds = %30
  %37 = load ptr, ptr %9, align 8, !tbaa !375
  %38 = call noundef nonnull align 8 dereferenceable(32) ptr @_ZNK7datalog17tr_infrastructureINS_12table_traitsEE13base_ancestor10get_pluginEv(ptr noundef nonnull align 8 dereferenceable(36) %37)
  %39 = load ptr, ptr %8, align 8, !tbaa !375
  %40 = load ptr, ptr %9, align 8, !tbaa !375
  %41 = load i32, ptr %10, align 4, !tbaa !279
  %42 = load ptr, ptr %11, align 8, !tbaa !286
  %43 = load ptr, ptr %12, align 8, !tbaa !286
  %44 = load ptr, ptr %38, align 8, !tbaa !8
  %45 = getelementptr inbounds ptr, ptr %44, i64 10
  %46 = load ptr, ptr %45, align 8
  %47 = call noundef ptr %46(ptr noundef nonnull align 8 dereferenceable(32) %38, ptr noundef nonnull align 8 dereferenceable(36) %39, ptr noundef nonnull align 8 dereferenceable(36) %40, i32 noundef %41, ptr noundef %42, ptr noundef %43)
  store ptr %47, ptr %13, align 8, !tbaa !501
  br label %48

48:                                               ; preds = %36, %30, %6
  %49 = load ptr, ptr %13, align 8, !tbaa !501
  %50 = icmp ne ptr %49, null
  br i1 %50, label %78, label %51

51:                                               ; preds = %48
  call void @llvm.lifetime.start.p0(i64 16, ptr %14) #3
  call void @_ZN7datalog15table_signatureC2Ev(ptr noundef nonnull align 8 dereferenceable(12) %14)
  %52 = load ptr, ptr %8, align 8, !tbaa !375
  %53 = invoke noundef nonnull align 8 dereferenceable(12) ptr @_ZNK7datalog17tr_infrastructureINS_12table_traitsEE13base_ancestor13get_signatureEv(ptr noundef nonnull align 8 dereferenceable(36) %52)
          to label %54 unwind label %74

54:                                               ; preds = %51
  %55 = load ptr, ptr %9, align 8, !tbaa !375
  %56 = invoke noundef nonnull align 8 dereferenceable(12) ptr @_ZNK7datalog17tr_infrastructureINS_12table_traitsEE13base_ancestor13get_signatureEv(ptr noundef nonnull align 8 dereferenceable(36) %55)
          to label %57 unwind label %74

57:                                               ; preds = %54
  %58 = load i32, ptr %10, align 4, !tbaa !279
  %59 = load ptr, ptr %11, align 8, !tbaa !286
  %60 = load ptr, ptr %12, align 8, !tbaa !286
  invoke void @_ZN7datalog15table_signature9from_joinERKS0_S2_jPKjS4_RS0_(ptr noundef nonnull align 8 dereferenceable(12) %53, ptr noundef nonnull align 8 dereferenceable(12) %56, i32 noundef %58, ptr noundef %59, ptr noundef %60, ptr noundef nonnull align 8 dereferenceable(12) %14)
          to label %61 unwind label %74

61:                                               ; preds = %57
  %62 = invoke noalias noundef ptr @_ZN6memory8allocateEm(i64 noundef 48)
          to label %63 unwind label %74

63:                                               ; preds = %61
  %64 = load ptr, ptr %8, align 8, !tbaa !375
  %65 = invoke noundef nonnull align 8 dereferenceable(12) ptr @_ZNK7datalog17tr_infrastructureINS_12table_traitsEE13base_ancestor13get_signatureEv(ptr noundef nonnull align 8 dereferenceable(36) %64)
          to label %66 unwind label %74

66:                                               ; preds = %63
  %67 = load ptr, ptr %9, align 8, !tbaa !375
  %68 = invoke noundef nonnull align 8 dereferenceable(12) ptr @_ZNK7datalog17tr_infrastructureINS_12table_traitsEE13base_ancestor13get_signatureEv(ptr noundef nonnull align 8 dereferenceable(36) %67)
          to label %69 unwind label %74

69:                                               ; preds = %66
  %70 = load i32, ptr %10, align 4, !tbaa !279
  %71 = load ptr, ptr %11, align 8, !tbaa !286
  %72 = load ptr, ptr %12, align 8, !tbaa !286
  invoke void @_ZN7datalog16relation_manager21default_table_join_fnC2ERKNS_15table_signatureES4_jPKjS6_(ptr noundef nonnull align 8 dereferenceable(44) %62, ptr noundef nonnull align 8 dereferenceable(12) %65, ptr noundef nonnull align 8 dereferenceable(12) %68, i32 noundef %70, ptr noundef %71, ptr noundef %72)
          to label %73 unwind label %74

73:                                               ; preds = %69
  store ptr %62, ptr %13, align 8, !tbaa !501
  call void @_ZN6vectorImLb0EjED2Ev(ptr noundef nonnull align 8 dereferenceable(12) %14) #3
  call void @llvm.lifetime.end.p0(i64 16, ptr %14) #3
  br label %78

74:                                               ; preds = %69, %66, %63, %61, %57, %54, %51
  %75 = landingpad { ptr, i32 }
          cleanup
  %76 = extractvalue { ptr, i32 } %75, 0
  store ptr %76, ptr %15, align 8
  %77 = extractvalue { ptr, i32 } %75, 1
  store i32 %77, ptr %16, align 4
  call void @_ZN6vectorImLb0EjED2Ev(ptr noundef nonnull align 8 dereferenceable(12) %14) #3
  call void @llvm.lifetime.end.p0(i64 16, ptr %14) #3
  call void @llvm.lifetime.end.p0(i64 8, ptr %13) #3
  br label %80

78:                                               ; preds = %73, %48
  %79 = load ptr, ptr %13, align 8, !tbaa !501
  call void @llvm.lifetime.end.p0(i64 8, ptr %13) #3
  ret ptr %79

80:                                               ; preds = %74
  %81 = load ptr, ptr %15, align 8
  %82 = load i32, ptr %16, align 4
  %83 = insertvalue { ptr, i32 } poison, ptr %81, 0
  %84 = insertvalue { ptr, i32 } %83, i32 %82, 1
  resume { ptr, i32 } %84
}