; Function Attrs: mustprogress uwtable
define hidden noundef ptr @_ZN7datalog16relation_manager10mk_join_fnERKNS_10table_baseES3_jPKjS5_(ptr nonnull readnone align 8 captures(none) %0, ptr noundef nonnull align 8 dereferenceable(36) %1, ptr noundef nonnull align 8 dereferenceable(36) %2, i32 noundef %3, ptr noundef %4, ptr noundef %5) local_unnamed_addr #4 align 2 personality ptr @__gxx_personality_v0 {
  %7 = alloca %"class.datalog::table_signature", align 8
  %8 = getelementptr inbounds nuw i8, ptr %1, i64 8
  %9 = load ptr, ptr %8, align 8, !tbaa !382
  %10 = load ptr, ptr %9, align 8, !tbaa !3
  %11 = getelementptr inbounds nuw i8, ptr %10, i64 80
  %12 = load ptr, ptr %11, align 8
  %13 = tail call noundef ptr %12(ptr noundef nonnull align 8 dereferenceable(32) %9, ptr noundef nonnull align 8 dereferenceable(36) %1, ptr noundef nonnull align 8 dereferenceable(36) %2, i32 noundef %3, ptr noundef %4, ptr noundef %5)
  %.not = icmp eq ptr %13, null
  br i1 %.not, label %14, label %.thread34

14:                                               ; preds = %6
  %15 = load ptr, ptr %8, align 8, !tbaa !382
  %16 = getelementptr inbounds nuw i8, ptr %2, i64 8
  %17 = load ptr, ptr %16, align 8, !tbaa !382
  %.not30 = icmp eq ptr %15, %17
  br i1 %.not30, label %.thread, label %18

18:                                               ; preds = %14
  %19 = load ptr, ptr %17, align 8, !tbaa !3
  %20 = getelementptr inbounds nuw i8, ptr %19, i64 80
  %21 = load ptr, ptr %20, align 8
  %22 = tail call noundef ptr %21(ptr noundef nonnull align 8 dereferenceable(32) %17, ptr noundef nonnull align 8 dereferenceable(36) %1, ptr noundef nonnull align 8 dereferenceable(36) %2, i32 noundef %3, ptr noundef %4, ptr noundef %5)
  %.not31 = icmp eq ptr %22, null
  br i1 %.not31, label %.thread, label %.thread34

.thread:                                          ; preds = %14, %18
  call void @llvm.lifetime.start.p0(i64 16, ptr nonnull %7) #27
  store ptr null, ptr %7, align 8, !tbaa !373
  %23 = getelementptr inbounds nuw i8, ptr %7, i64 8
  store i32 0, ptr %23, align 8, !tbaa !376
  %24 = getelementptr inbounds nuw i8, ptr %1, i64 16
  %25 = getelementptr inbounds nuw i8, ptr %2, i64 16
  invoke void @_ZN7datalog15table_signature9from_joinERKS0_S2_jPKjS4_RS0_(ptr noundef nonnull align 8 dereferenceable(12) %24, ptr noundef nonnull align 8 dereferenceable(12) %25, i32 noundef %3, ptr noundef %4, ptr noundef %5, ptr noundef nonnull align 8 dereferenceable(12) %7)
          to label %26 unwind label %37

26:                                               ; preds = %.thread
  %27 = invoke noalias noundef ptr @_ZN6memory8allocateEm(i64 noundef 48)
          to label %28 unwind label %37

28:                                               ; preds = %26
  invoke void @_ZN7datalog17tr_infrastructureINS_12table_traitsEE18convenient_join_fnC2ERKNS_15table_signatureES6_jPKjS8_(ptr noundef nonnull align 8 dereferenceable(44) %27, ptr noundef nonnull align 8 dereferenceable(12) %24, ptr noundef nonnull align 8 dereferenceable(12) %25, i32 noundef %3, ptr noundef %4, ptr noundef %5)
          to label %29 unwind label %37

29:                                               ; preds = %28
  store ptr getelementptr inbounds nuw inrange(-16, 24) (i8, ptr @_ZTVN7datalog16relation_manager21default_table_join_fnE, i64 16), ptr %27, align 8, !tbaa !3
  %30 = getelementptr inbounds nuw i8, ptr %27, i64 40
  store i32 %3, ptr %30, align 8, !tbaa !463
  %31 = load ptr, ptr %7, align 8, !tbaa !373
  %.not.i.i = icmp eq ptr %31, null
  br i1 %.not.i.i, label %_ZN6vectorImLb0EjED2Ev.exit, label %32

32:                                               ; preds = %29
  %33 = getelementptr inbounds i8, ptr %31, i64 -8
  invoke void @_ZN6memory10deallocateEPv(ptr noundef nonnull %33)
          to label %_ZN6vectorImLb0EjED2Ev.exit unwind label %34

34:                                               ; preds = %32
  %35 = landingpad { ptr, i32 }
          catch ptr null
  %36 = extractvalue { ptr, i32 } %35, 0
  call void @__clang_call_terminate(ptr %36) #26
  unreachable

_ZN6vectorImLb0EjED2Ev.exit:                      ; preds = %29, %32
  call void @llvm.lifetime.end.p0(i64 16, ptr nonnull %7) #27
  br label %.thread34

37:                                               ; preds = %28, %26, %.thread
  %38 = landingpad { ptr, i32 }
          cleanup
  call void @_ZN6vectorImLb0EjED2Ev(ptr noundef nonnull align 8 dereferenceable(12) %7) #27
  call void @llvm.lifetime.end.p0(i64 16, ptr nonnull %7) #27
  resume { ptr, i32 } %38

.thread34:                                        ; preds = %6, %_ZN6vectorImLb0EjED2Ev.exit, %18
  %.1 = phi ptr [ %22, %18 ], [ %27, %_ZN6vectorImLb0EjED2Ev.exit ], [ %13, %6 ]
  ret ptr %.1
}